; Function Attrs: mustprogress uwtable
define noundef zeroext i1 @_ZN13DecodeAsModel10removeRowsEiiRK11QModelIndex(ptr noundef nonnull align 8 dereferenceable(96) %0, i32 noundef %1, i32 noundef %2, ptr nocapture noundef nonnull readnone align 8 dereferenceable(24) %3) unnamed_addr #0 align 2 {
  %5 = alloca %class.QModelIndex, align 8
  %6 = alloca %class.QModelIndex, align 8
  %7 = icmp ne i32 %2, 1
  %8 = icmp slt i32 %1, 0
  %or.cond = or i1 %8, %7
  br i1 %or.cond, label %.critedge, label %9

9:                                                ; preds = %4
  store i32 -1, ptr %5, align 8
  %10 = getelementptr inbounds i8, ptr %5, i64 4
  store i32 -1, ptr %10, align 4
  %11 = getelementptr inbounds i8, ptr %5, i64 8
  call void @llvm.memset.p0.i64(ptr noundef nonnull align 8 dereferenceable(16) %11, i8 0, i64 16, i1 false)
  %12 = load ptr, ptr %0, align 8
  %13 = getelementptr inbounds i8, ptr %12, i64 120
  %14 = load ptr, ptr %13, align 8
  %15 = call noundef i32 %14(ptr noundef nonnull align 8 dereferenceable(96) %0, ptr noundef nonnull align 8 dereferenceable(24) %5)
  %.not = icmp sgt i32 %15, %1
  br i1 %.not, label %16, label %.critedge

16:                                               ; preds = %9
  store i32 -1, ptr %6, align 8
  %17 = getelementptr inbounds i8, ptr %6, i64 4
  store i32 -1, ptr %17, align 4
  %18 = getelementptr inbounds i8, ptr %6, i64 8
  call void @llvm.memset.p0.i64(ptr noundef nonnull align 8 dereferenceable(16) %18, i8 0, i64 16, i1 false)
  call void @_ZN18QAbstractItemModel15beginRemoveRowsERK11QModelIndexii(ptr noundef nonnull align 8 dereferenceable(16) %0, ptr noundef nonnull align 8 dereferenceable(24) %6, i32 noundef %1, i32 noundef %1)
  %19 = getelementptr inbounds i8, ptr %0, i64 24
  %20 = zext nneg i32 %1 to i64
  %21 = call noundef ptr @_ZN5QListIP12DecodeAsItemE6takeAtEx(ptr noundef nonnull align 8 dereferenceable(24) %19, i64 noundef %20)
  %22 = icmp eq ptr %21, null
  br i1 %22, label %27, label %23

23:                                               ; preds = %16
  %24 = load ptr, ptr %21, align 8
  %25 = getelementptr inbounds i8, ptr %24, i64 8
  %26 = load ptr, ptr %25, align 8
  call void %26(ptr noundef nonnull align 8 dereferenceable(120) %21) #19
  br label %27

27:                                               ; preds = %23, %16
  call void @_ZN18QAbstractItemModel13endRemoveRowsEv(ptr noundef nonnull align 8 dereferenceable(16) %0)
  br label %.critedge

.critedge:                                        ; preds = %9, %4, %27
  %.0 = phi i1 [ true, %27 ], [ false, %4 ], [ false, %9 ]
  ret i1 %.0
}